
Allocating common symbols
Common symbol       size              file

keyfifo             0x4               ../obj/io.o
timer_ctl           0x271c            ../obj/timer.o
taskctl             0x4               ../obj/mult_task.o
mousedata           0x4               ../obj/io.o
keydata             0x4               ../obj/io.o
mousefifo           0x4               ../obj/io.o
task_timer          0x4               ../obj/mult_task.o

Discarded input sections

 .eh_frame      0x0000000000000000       0xd8 ../obj/io.o
 .eh_frame      0x0000000000000000      0x160 ../obj/layer.o
 .eh_frame      0x0000000000000000       0x7c ../obj/file.o
 .eh_frame      0x0000000000000000      0x15c ../obj/mult_task.o
 .eh_frame      0x0000000000000000       0x78 ../obj/interrupt.o
 .eh_frame      0x0000000000000000      0x1a8 ../obj/console.o
 .eh_frame      0x0000000000000000      0x15c ../obj/macro.o
 .eh_frame      0x0000000000000000       0x88 ../obj/window.o
 .eh_frame      0x0000000000000000      0x104 ../obj/memory.o
 .eh_frame      0x0000000000000000       0x34 ../obj/bootpack.o
 .eh_frame      0x0000000000000000      0x118 ../obj/fifo.o
 .eh_frame      0x0000000000000000       0x78 ../obj/dsctbl.o
 .eh_frame      0x0000000000000000       0xd8 ../obj/timer.o
 .eh_frame      0x0000000000000000      0x140 ../obj/grahpic.o

Memory Configuration

Name             Origin             Length             Attributes
*default*        0x0000000000000000 0xffffffffffffffff

Linker script and memory map


.head           0x0000000000000000       0x24
                0x0000000000000000        0x4 LONG 0x10000
                0x0000000000000004        0x4 LONG 0x69726148
                0x0000000000000008        0x4 LONG 0x0
                0x000000000000000c        0x4 LONG 0x310000
                0x0000000000000010        0x4 LONG 0x14c1 SIZEOF (.data)
                0x0000000000000014        0x4 LONG 0x5458 LOADADDR (.data)
                0x0000000000000018        0x4 LONG 0xe9000000
                0x000000000000001c        0x4 LONG 0x355c (HariMain - 0x20)
                0x0000000000000020        0x4 LONG 0x0

.text           0x0000000000000030     0x5428
 *(.text)
 .text          0x0000000000000030      0x2a0 ../obj/io.o
                0x0000000000000030                interrupt_handler21
                0x0000000000000078                wait_KBC_sendready
                0x0000000000000098                init_keyboard
                0x00000000000000e3                interrupt_handler2c
                0x000000000000013f                enable_mouse
                0x0000000000000191                mouse_decode
 .text          0x00000000000002d0      0xae9 ../obj/layer.o
                0x00000000000002d0                layer_control_init
                0x00000000000003b5                layer_alloc
                0x000000000000042c                layer_setbuf
                0x0000000000000455                layer_refreshmap
                0x0000000000000602                layer_refreshsub
                0x00000000000007ca                layer_updown
                0x0000000000000ba5                layer_refresh
                0x0000000000000c27                layer_slide
                0x0000000000000d89                layer_free
 .text          0x0000000000000db9        0x0 ../obj/hankaku.o
 .text          0x0000000000000db9      0x2bf ../obj/file.o
                0x0000000000000db9                file_search
                0x0000000000000f22                file_readfat
                0x0000000000000fd2                file_loadfile
 .text          0x0000000000001078      0x6b7 ../obj/mult_task.o
                0x0000000000001078                task_init
                0x00000000000012b9                task_alloc
                0x00000000000013db                task_run
                0x000000000000144b                task_switch
                0x000000000000152e                task_sleep
                0x000000000000157f                task_now
                0x00000000000015b9                task_add
                0x000000000000160c                task_remove
                0x00000000000016d0                task_switchsub
                0x0000000000001722                task_idle
 .text          0x000000000000172f      0x149 ../obj/interrupt.o
                0x000000000000172f                init_pic
                0x0000000000001828                interrupt_handler27
                0x0000000000001845                interrupt_handler0d
 .text          0x0000000000001878      0xe15 ../obj/console.o
                0x0000000000001878                console_task
                0x0000000000001c06                cons_newline
                0x0000000000001d1f                cons_putchar
                0x0000000000001e60                cons_runcmd
                0x0000000000001f9b                cmd_mem
                0x0000000000002011                cmd_clear
                0x000000000000209b                cmd_ls
                0x00000000000021ca                cmd_cat
                0x00000000000022ca                cmd_app
                0x0000000000002571                cons_putstr
                0x00000000000025a9                cons_putnstr
                0x00000000000025ea                str_api
 .text          0x000000000000268d      0x44f ../obj/macro.o
                0x000000000000268d                lsprintf
                0x000000000000282d                strcls
                0x000000000000284a                int2char
                0x0000000000002860                int2hex
                0x000000000000291a                figure
                0x0000000000002977                int2dec
                0x0000000000002a16                int2str
                0x0000000000002a47                get_length
                0x0000000000002a6d                lstrcmp
                0x0000000000002aaa                lstrncmp
 .text          0x0000000000002adc      0x601 ../obj/window.o
                0x0000000000002adc                make_window
                0x0000000000002d3e                make_wtitle
                0x0000000000002e5c                make_textbox8
 .text          0x00000000000030dd      0x49f ../obj/memory.o
                0x00000000000030dd                memtest
                0x000000000000317d                memory_manage_init
                0x00000000000031aa                memory_manage_total
                0x00000000000031e2                memory_manage_alloc
                0x00000000000032c9                memory_manage_free
                0x0000000000003515                memory_manage_alloc_4k
                0x0000000000003545                memory_manage_free_4k
 .text          0x000000000000357c      0xcfc ../obj/bootpack.o
                0x000000000000357c                HariMain
 .text          0x0000000000004278      0x2c3 ../obj/fifo.o
                0x0000000000004278                init_fifo32
                0x00000000000042bf                put_fifo32
                0x0000000000004374                get_fifo32
                0x00000000000043e3                fifo_status32
                0x00000000000043f8                init_fifo
                0x0000000000004436                put_fifo
                0x00000000000044b6                get_fifo
                0x0000000000004526                fifo_status
 .text          0x000000000000453b      0x2ca ../obj/dsctbl.o
                0x000000000000453b                init_gdtidt
                0x0000000000004742                set_segmdesc
                0x00000000000047bd                set_gatedesc
 .text          0x0000000000004805      0x2a5 ../obj/timer.o
                0x0000000000004805                init_pit
                0x00000000000048b9                timer_alloc
                0x0000000000004924                timer_free
                0x0000000000004934                init_timer
                0x000000000000494c                settimer
                0x00000000000049f9                interrupt_handler20
 .text          0x0000000000004aaa      0x808 ../obj/grahpic.o
                0x0000000000004aaa                init_palette
                0x0000000000004acf                set_palette
                0x0000000000004b72                draw_rectangle
                0x0000000000004bd0                put_font
                0x0000000000004cd1                put_string
                0x0000000000004d4f                init_desktop
                0x00000000000050ab                init_mouse_cursor
                0x0000000000005183                put_block
                0x00000000000051f3                put_string_layer
 *fill*         0x00000000000052b2        0xe 
 .text          0x00000000000052c0      0x198 ../obj/asmfunc.o
                0x00000000000052c0                io_hlt
                0x00000000000052c2                io_cli
                0x00000000000052c4                io_sti
                0x00000000000052c6                io_stihlt
                0x00000000000052c9                io_in8
                0x00000000000052d4                io_in16
                0x00000000000052e0                io_in32
                0x00000000000052e6                io_out8
                0x00000000000052f0                io_out16
                0x00000000000052fb                io_out32
                0x0000000000005305                io_load_eflags
                0x0000000000005308                io_store_eflags
                0x000000000000530f                load_gdtr
                0x000000000000531f                load_idtr
                0x000000000000532f                load_cr0
                0x0000000000005333                store_cr0
                0x000000000000533b                load_tr
                0x0000000000005341                asm_interrupt_handler20
                0x0000000000005358                asm_interrupt_handler21
                0x000000000000536f                asm_interrupt_handler27
                0x0000000000005386                asm_interrupt_handler2c
                0x000000000000539d                asm_interrupt_handler0d
                0x00000000000053bd                memtest_sub
                0x00000000000053ff                farjmp
                0x0000000000005404                farcall
                0x0000000000005409                asm_str_api
                0x0000000000005426                end_app
                0x000000000000542a                start_app

.data           0x0000000000310000     0x14c1 load address 0x0000000000005458
 *(.data)
 .data          0x0000000000310000      0x100 ../obj/io.o
 .data          0x0000000000310100        0x0 ../obj/layer.o
 .data          0x0000000000310100     0x1000 ../obj/hankaku.o
                0x0000000000310100                hankaku
 .data          0x0000000000311100        0x0 ../obj/file.o
 .data          0x0000000000311100        0x0 ../obj/mult_task.o
 .data          0x0000000000311100        0x0 ../obj/interrupt.o
 .data          0x0000000000311100        0x0 ../obj/console.o
 .data          0x0000000000311100        0x0 ../obj/macro.o
 .data          0x0000000000311100       0xe0 ../obj/window.o
 .data          0x00000000003111e0        0x0 ../obj/memory.o
 .data          0x00000000003111e0      0x100 ../obj/bootpack.o
 .data          0x00000000003112e0        0x0 ../obj/fifo.o
 .data          0x00000000003112e0        0x0 ../obj/dsctbl.o
 .data          0x00000000003112e0        0x0 ../obj/timer.o
 .data          0x00000000003112e0      0x140 ../obj/grahpic.o
 *(.rodata*)
 .rodata        0x0000000000311420       0x29 ../obj/interrupt.o
 .rodata        0x0000000000311449       0x67 ../obj/console.o
 .rodata        0x00000000003114b0       0x11 ../obj/bootpack.o
 *(.bss)
 .bss           0x00000000003114c1        0x0 ../obj/io.o
 .bss           0x00000000003114c1        0x0 ../obj/layer.o
 .bss           0x00000000003114c1        0x0 ../obj/hankaku.o
 .bss           0x00000000003114c1        0x0 ../obj/file.o
 .bss           0x00000000003114c1        0x0 ../obj/mult_task.o
 .bss           0x00000000003114c1        0x0 ../obj/interrupt.o
 .bss           0x00000000003114c1        0x0 ../obj/console.o
 .bss           0x00000000003114c1        0x0 ../obj/macro.o
 .bss           0x00000000003114c1        0x0 ../obj/window.o
 .bss           0x00000000003114c1        0x0 ../obj/memory.o
 .bss           0x00000000003114c1        0x0 ../obj/bootpack.o
 .bss           0x00000000003114c1        0x0 ../obj/fifo.o
 .bss           0x00000000003114c1        0x0 ../obj/dsctbl.o
 .bss           0x00000000003114c1        0x0 ../obj/timer.o
 .bss           0x00000000003114c1        0x0 ../obj/grahpic.o

/DISCARD/
 *(.eh_frame)
LOAD ../obj/io.o
LOAD ../obj/layer.o
LOAD ../obj/hankaku.o
LOAD ../obj/file.o
LOAD ../obj/mult_task.o
LOAD ../obj/interrupt.o
LOAD ../obj/console.o
LOAD ../obj/macro.o
LOAD ../obj/window.o
LOAD ../obj/memory.o
LOAD ../obj/bootpack.o
LOAD ../obj/fifo.o
LOAD ../obj/dsctbl.o
LOAD ../obj/timer.o
LOAD ../obj/grahpic.o
LOAD ../obj/asmfunc.o
OUTPUT(../bin/bootpack.bin binary)

.comment        0x0000000000000000      0x1c2
 .comment       0x0000000000000000       0x1e ../obj/io.o
 .comment       0x000000000000001e       0x1e ../obj/layer.o
 .comment       0x000000000000003c       0x1e ../obj/hankaku.o
 .comment       0x000000000000005a       0x1e ../obj/file.o
 .comment       0x0000000000000078       0x1e ../obj/mult_task.o
 .comment       0x0000000000000096       0x1e ../obj/interrupt.o
 .comment       0x00000000000000b4       0x1e ../obj/console.o
 .comment       0x00000000000000d2       0x1e ../obj/macro.o
 .comment       0x00000000000000f0       0x1e ../obj/window.o
 .comment       0x000000000000010e       0x1e ../obj/memory.o
 .comment       0x000000000000012c       0x1e ../obj/bootpack.o
 .comment       0x000000000000014a       0x1e ../obj/fifo.o
 .comment       0x0000000000000168       0x1e ../obj/dsctbl.o
 .comment       0x0000000000000186       0x1e ../obj/timer.o
 .comment       0x00000000000001a4       0x1e ../obj/grahpic.o

.note.GNU-stack
                0x0000000000000000        0x0
 .note.GNU-stack
                0x0000000000000000        0x0 ../obj/io.o
 .note.GNU-stack
                0x0000000000000000        0x0 ../obj/layer.o
 .note.GNU-stack
                0x0000000000000000        0x0 ../obj/hankaku.o
 .note.GNU-stack
                0x0000000000000000        0x0 ../obj/file.o
 .note.GNU-stack
                0x0000000000000000        0x0 ../obj/mult_task.o
 .note.GNU-stack
                0x0000000000000000        0x0 ../obj/interrupt.o
 .note.GNU-stack
                0x0000000000000000        0x0 ../obj/console.o
 .note.GNU-stack
                0x0000000000000000        0x0 ../obj/macro.o
 .note.GNU-stack
                0x0000000000000000        0x0 ../obj/window.o
 .note.GNU-stack
                0x0000000000000000        0x0 ../obj/memory.o
 .note.GNU-stack
                0x0000000000000000        0x0 ../obj/bootpack.o
 .note.GNU-stack
                0x0000000000000000        0x0 ../obj/fifo.o
 .note.GNU-stack
                0x0000000000000000        0x0 ../obj/dsctbl.o
 .note.GNU-stack
                0x0000000000000000        0x0 ../obj/timer.o
 .note.GNU-stack
                0x0000000000000000        0x0 ../obj/grahpic.o

.bss            0x00000000003114e0     0x273c load address 0x0000000000006940
 COMMON         0x00000000003114e0       0x10 ../obj/io.o
                0x00000000003114e0                keyfifo
                0x00000000003114e4                mousedata
                0x00000000003114e8                keydata
                0x00000000003114ec                mousefifo
 COMMON         0x00000000003114f0        0x8 ../obj/mult_task.o
                0x00000000003114f0                taskctl
                0x00000000003114f4                task_timer
 *fill*         0x00000000003114f8        0x8 
 COMMON         0x0000000000311500     0x271c ../obj/timer.o
                0x0000000000311500                timer_ctl
